target datalayout = "e-m:e-p270:32:32-p271:32:32-p272:64:64-i64:64-i128:128-f80:128-n8:16:32:64-S128"
target triple = "x86_64-pc-linux-gnu"

%struct._priv_exr_context_t = type { i8, i8, i8, i8, i8, i8, i8, i8, %struct.exr_attr_string_t, %struct.exr_attr_string_t, ptr, ptr, ptr, ptr, ptr, ptr, ptr, ptr, i32, i32, i32, i32, i32, float, ptr, ptr, ptr, i64, ptr, ptr, i64, i32, i32, i32, i32, %struct._priv_exr_part_t, ptr, ptr, %struct.exr_attribute_list, %union.pthread_mutex_t, i8, i8, [2 x i8], i32 }
%struct.exr_attr_string_t = type { i32, i32, ptr }
%struct._priv_exr_part_t = type { i32, i32, %struct.exr_attribute_list, ptr, ptr, ptr, ptr, ptr, ptr, ptr, ptr, ptr, ptr, ptr, ptr, ptr, ptr, %struct.exr_attr_box2i_t, %struct.exr_attr_box2i_t, i32, i32, i32, float, i32, i32, ptr, ptr, ptr, ptr, i64, i16, i16, i32, i64, i64 }
%struct.exr_attr_box2i_t = type { %struct.exr_attr_v2i_t, %struct.exr_attr_v2i_t }
%struct.exr_attr_v2i_t = type { i32, i32 }
%struct.exr_attribute_list = type { i32, i32, ptr, ptr }
%union.pthread_mutex_t = type { %struct.__pthread_mutex_s }
%struct.__pthread_mutex_s = type { i32, i32, i32, i32, i32, i16, i16, %struct.__pthread_internal_list }
%struct.__pthread_internal_list = type { ptr, ptr }
%struct.exr_attribute_t = type { ptr, ptr, i8, i8, [2 x i8], i32, %union.anon }
%union.anon = type { double }
%struct.exr_attr_float_vector_t = type { i32, i32, ptr }

@.str = private unnamed_addr constant [29 x i8] c"Part index (%d) out of range\00", align 1
@.str.51 = private unnamed_addr constant [40 x i8] c"Invalid size (%d) for float vector '%s'\00", align 1
@.str.52 = private unnamed_addr constant [53 x i8] c"No input values for setting '%s', type 'floatvector'\00", align 1
@.str.53 = private unnamed_addr constant [62 x i8] c"'%s' requested type 'floatvector', but attribute is type '%s'\00", align 1
@.str.54 = private unnamed_addr constant [66 x i8] c"Existing float vector '%s' has %d, requested %d, unable to change\00", align 1

; Function Attrs: inlinehint nounwind uwtable
define internal void @internal_exr_unlock(ptr noundef %0) #2 {
  %2 = alloca ptr, align 8
  %3 = alloca ptr, align 8
  store ptr %0, ptr %2, align 8, !tbaa !3
  call void @llvm.lifetime.start.p0(i64 8, ptr %3) #8
  %4 = load ptr, ptr %2, align 8, !tbaa !3
  %5 = ptrtoint ptr %4 to i64
  %6 = inttoptr i64 %5 to ptr
  store ptr %6, ptr %3, align 8, !tbaa !3
  %7 = load ptr, ptr %3, align 8, !tbaa !3
  %8 = getelementptr inbounds nuw %struct._priv_exr_context_t, ptr %7, i32 0, i32 39
  %9 = call i32 @pthread_mutex_unlock(ptr noundef %8) #8
  call void @llvm.lifetime.end.p0(i64 8, ptr %3) #8
  ret void
}

; Function Attrs: inlinehint nounwind uwtable
define internal void @internal_exr_lock(ptr noundef %0) #2 {
  %2 = alloca ptr, align 8
  %3 = alloca ptr, align 8
  store ptr %0, ptr %2, align 8, !tbaa !3
  call void @llvm.lifetime.start.p0(i64 8, ptr %3) #8
  %4 = load ptr, ptr %2, align 8, !tbaa !3
  %5 = ptrtoint ptr %4 to i64
  %6 = inttoptr i64 %5 to ptr
  store ptr %6, ptr %3, align 8, !tbaa !3
  %7 = load ptr, ptr %3, align 8, !tbaa !3
  %8 = getelementptr inbounds nuw %struct._priv_exr_context_t, ptr %7, i32 0, i32 39
  %9 = call i32 @pthread_mutex_lock(ptr noundef %8) #8
  call void @llvm.lifetime.end.p0(i64 8, ptr %3) #8
  ret void
}

; Function Attrs: nounwind uwtable
define i32 @exr_attr_set_float_vector(ptr noundef %0, i32 noundef %1, ptr noundef %2, i32 noundef %3, ptr noundef %4) #0 {
  %6 = alloca i32, align 4
  %7 = alloca ptr, align 8
  %8 = alloca i32, align 4
  %9 = alloca ptr, align 8
  %10 = alloca i32, align 4
  %11 = alloca ptr, align 8
  %12 = alloca ptr, align 8
  %13 = alloca i32, align 4
  %14 = alloca i64, align 8
  %15 = alloca ptr, align 8
  %16 = alloca i32, align 4
  store ptr %0, ptr %7, align 8, !tbaa !3
  store i32 %1, ptr %8, align 4, !tbaa !8
  store ptr %2, ptr %9, align 8, !tbaa !36
  store i32 %3, ptr %10, align 4, !tbaa !8
  store ptr %4, ptr %11, align 8, !tbaa !95
  call void @llvm.lifetime.start.p0(i64 8, ptr %12) #8
  store ptr null, ptr %12, align 8, !tbaa !35
  call void @llvm.lifetime.start.p0(i64 4, ptr %13) #8
  store i32 0, ptr %13, align 4, !tbaa !8
  call void @llvm.lifetime.start.p0(i64 8, ptr %14) #8
  %17 = load i32, ptr %10, align 4, !tbaa !8
  %18 = sext i32 %17 to i64
  %19 = mul i64 %18, 4
  store i64 %19, ptr %14, align 8, !tbaa !103
  call void @llvm.lifetime.start.p0(i64 8, ptr %15) #8
  %20 = load ptr, ptr %7, align 8, !tbaa !3
  %21 = icmp ne ptr %20, null
  br i1 %21, label %23, label %22

22:                                               ; preds = %5
  store i32 2, ptr %6, align 4
  store i32 1, ptr %16, align 4
  br label %229

23:                                               ; preds = %5
  %24 = load ptr, ptr %7, align 8, !tbaa !3
  call void @internal_exr_lock(ptr noundef %24)
  %25 = load i32, ptr %8, align 4, !tbaa !8
  %26 = icmp slt i32 %25, 0
  br i1 %26, label %33, label %27

27:                                               ; preds = %23
  %28 = load i32, ptr %8, align 4, !tbaa !8
  %29 = load ptr, ptr %7, align 8, !tbaa !3
  %30 = getelementptr inbounds nuw %struct._priv_exr_context_t, ptr %29, i32 0, i32 34
  %31 = load i32, ptr %30, align 4, !tbaa !26
  %32 = icmp sge i32 %28, %31
  br i1 %32, label %33, label %41

33:                                               ; preds = %27, %23
  %34 = load ptr, ptr %7, align 8, !tbaa !3
  call void @internal_exr_unlock(ptr noundef %34)
  %35 = load ptr, ptr %7, align 8, !tbaa !3
  %36 = getelementptr inbounds nuw %struct._priv_exr_context_t, ptr %35, i32 0, i32 14
  %37 = load ptr, ptr %36, align 8, !tbaa !27
  %38 = load ptr, ptr %7, align 8, !tbaa !3
  %39 = load i32, ptr %8, align 4, !tbaa !8
  %40 = call i32 (ptr, i32, ptr, ...) %37(ptr noundef %38, i32 noundef 4, ptr noundef @.str, i32 noundef %39)
  store i32 %40, ptr %6, align 4
  store i32 1, ptr %16, align 4
  br label %229

41:                                               ; preds = %27
  %42 = load ptr, ptr %7, align 8, !tbaa !3
  %43 = getelementptr inbounds nuw %struct._priv_exr_context_t, ptr %42, i32 0, i32 37
  %44 = load ptr, ptr %43, align 8, !tbaa !28
  %45 = load i32, ptr %8, align 4, !tbaa !8
  %46 = sext i32 %45 to i64
  %47 = getelementptr inbounds ptr, ptr %44, i64 %46
  %48 = load ptr, ptr %47, align 8, !tbaa !29
  store ptr %48, ptr %15, align 8, !tbaa !29
  %49 = load ptr, ptr %7, align 8, !tbaa !3
  %50 = getelementptr inbounds nuw %struct._priv_exr_context_t, ptr %49, i32 0, i32 0
  %51 = load i8, ptr %50, align 8, !tbaa !12
  %52 = zext i8 %51 to i32
  %53 = icmp eq i32 %52, 0
  br i1 %53, label %54, label %61

54:                                               ; preds = %41
  %55 = load ptr, ptr %7, align 8, !tbaa !3
  call void @internal_exr_unlock(ptr noundef %55)
  %56 = load ptr, ptr %7, align 8, !tbaa !3
  %57 = getelementptr inbounds nuw %struct._priv_exr_context_t, ptr %56, i32 0, i32 12
  %58 = load ptr, ptr %57, align 8, !tbaa !31
  %59 = load ptr, ptr %7, align 8, !tbaa !3
  %60 = call i32 %58(ptr noundef %59, i32 noundef 8)
  store i32 %60, ptr %6, align 4
  store i32 1, ptr %16, align 4
  br label %229

61:                                               ; preds = %41
  %62 = load ptr, ptr %7, align 8, !tbaa !3
  %63 = getelementptr inbounds nuw %struct._priv_exr_context_t, ptr %62, i32 0, i32 0
  %64 = load i8, ptr %63, align 8, !tbaa !12
  %65 = zext i8 %64 to i32
  %66 = icmp eq i32 %65, 3
  br i1 %66, label %67, label %74

67:                                               ; preds = %61
  %68 = load ptr, ptr %7, align 8, !tbaa !3
  call void @internal_exr_unlock(ptr noundef %68)
  %69 = load ptr, ptr %7, align 8, !tbaa !3
  %70 = getelementptr inbounds nuw %struct._priv_exr_context_t, ptr %69, i32 0, i32 12
  %71 = load ptr, ptr %70, align 8, !tbaa !31
  %72 = load ptr, ptr %7, align 8, !tbaa !3
  %73 = call i32 %71(ptr noundef %72, i32 noundef 21)
  store i32 %73, ptr %6, align 4
  store i32 1, ptr %16, align 4
  br label %229

74:                                               ; preds = %61
  %75 = load i32, ptr %10, align 4, !tbaa !8
  %76 = icmp slt i32 %75, 0
  br i1 %76, label %80, label %77

77:                                               ; preds = %74
  %78 = load i64, ptr %14, align 8, !tbaa !103
  %79 = icmp ugt i64 %78, 2147483647
  br i1 %79, label %80, label %89

80:                                               ; preds = %77, %74
  %81 = load ptr, ptr %7, align 8, !tbaa !3
  call void @internal_exr_unlock(ptr noundef %81)
  %82 = load ptr, ptr %7, align 8, !tbaa !3
  %83 = getelementptr inbounds nuw %struct._priv_exr_context_t, ptr %82, i32 0, i32 14
  %84 = load ptr, ptr %83, align 8, !tbaa !27
  %85 = load ptr, ptr %7, align 8, !tbaa !3
  %86 = load i32, ptr %10, align 4, !tbaa !8
  %87 = load ptr, ptr %9, align 8, !tbaa !36
  %88 = call i32 (ptr, i32, ptr, ...) %84(ptr noundef %85, i32 noundef 3, ptr noundef @.str.51, i32 noundef %86, ptr noundef %87)
  store i32 %88, ptr %6, align 4
  store i32 1, ptr %16, align 4
  br label %229

89:                                               ; preds = %77
  %90 = load ptr, ptr %11, align 8, !tbaa !95
  %91 = icmp ne ptr %90, null
  br i1 %91, label %100, label %92

92:                                               ; preds = %89
  %93 = load ptr, ptr %7, align 8, !tbaa !3
  call void @internal_exr_unlock(ptr noundef %93)
  %94 = load ptr, ptr %7, align 8, !tbaa !3
  %95 = getelementptr inbounds nuw %struct._priv_exr_context_t, ptr %94, i32 0, i32 14
  %96 = load ptr, ptr %95, align 8, !tbaa !27
  %97 = load ptr, ptr %7, align 8, !tbaa !3
  %98 = load ptr, ptr %9, align 8, !tbaa !36
  %99 = call i32 (ptr, i32, ptr, ...) %96(ptr noundef %97, i32 noundef 3, ptr noundef @.str.52, ptr noundef %98)
  store i32 %99, ptr %6, align 4
  store i32 1, ptr %16, align 4
  br label %229

100:                                              ; preds = %89
  %101 = load ptr, ptr %7, align 8, !tbaa !3
  %102 = load ptr, ptr %15, align 8, !tbaa !29
  %103 = getelementptr inbounds nuw %struct._priv_exr_part_t, ptr %102, i32 0, i32 2
  %104 = load ptr, ptr %9, align 8, !tbaa !36
  %105 = call i32 @exr_attr_list_find_by_name(ptr noundef %101, ptr noundef %103, ptr noundef %104, ptr noundef %12)
  store i32 %105, ptr %13, align 4, !tbaa !8
  %106 = load i32, ptr %13, align 4, !tbaa !8
  %107 = icmp eq i32 %106, 15
  br i1 %107, label %108, label %140

108:                                              ; preds = %100
  %109 = load ptr, ptr %7, align 8, !tbaa !3
  %110 = getelementptr inbounds nuw %struct._priv_exr_context_t, ptr %109, i32 0, i32 0
  %111 = load i8, ptr %110, align 8, !tbaa !12
  %112 = zext i8 %111 to i32
  %113 = icmp ne i32 %112, 1
  br i1 %113, label %114, label %123

114:                                              ; preds = %108
  %115 = load ptr, ptr %7, align 8, !tbaa !3
  %116 = getelementptr inbounds nuw %struct._priv_exr_context_t, ptr %115, i32 0, i32 0
  %117 = load i8, ptr %116, align 8, !tbaa !12
  %118 = zext i8 %117 to i32
  %119 = icmp ne i32 %118, 4
  br i1 %119, label %120, label %123

120:                                              ; preds = %114
  %121 = load ptr, ptr %7, align 8, !tbaa !3
  call void @internal_exr_unlock(ptr noundef %121)
  %122 = load i32, ptr %13, align 4, !tbaa !8
  store i32 %122, ptr %6, align 4
  store i32 1, ptr %16, align 4
  br label %229

123:                                              ; preds = %114, %108
  %124 = load ptr, ptr %7, align 8, !tbaa !3
  %125 = load ptr, ptr %15, align 8, !tbaa !29
  %126 = getelementptr inbounds nuw %struct._priv_exr_part_t, ptr %125, i32 0, i32 2
  %127 = load ptr, ptr %9, align 8, !tbaa !36
  %128 = call i32 @exr_attr_list_add(ptr noundef %124, ptr noundef %126, ptr noundef %127, i32 noundef 9, i32 noundef 0, ptr noundef null, ptr noundef %12)
  store i32 %128, ptr %13, align 4, !tbaa !8
  %129 = load i32, ptr %13, align 4, !tbaa !8
  %130 = icmp eq i32 %129, 0
  br i1 %130, label %131, label %139

131:                                              ; preds = %123
  %132 = load ptr, ptr %7, align 8, !tbaa !3
  %133 = load ptr, ptr %12, align 8, !tbaa !35
  %134 = getelementptr inbounds nuw %struct.exr_attribute_t, ptr %133, i32 0, i32 6
  %135 = load ptr, ptr %134, align 8, !tbaa !42
  %136 = load ptr, ptr %11, align 8, !tbaa !95
  %137 = load i32, ptr %10, align 4, !tbaa !8
  %138 = call i32 @exr_attr_float_vector_create(ptr noundef %132, ptr noundef %135, ptr noundef %136, i32 noundef %137)
  store i32 %138, ptr %13, align 4, !tbaa !8
  br label %139

139:                                              ; preds = %131, %123
  br label %226

140:                                              ; preds = %100
  %141 = load i32, ptr %13, align 4, !tbaa !8
  %142 = icmp eq i32 %141, 0
  br i1 %142, label %143, label %225

143:                                              ; preds = %140
  %144 = load ptr, ptr %12, align 8, !tbaa !35
  %145 = getelementptr inbounds nuw %struct.exr_attribute_t, ptr %144, i32 0, i32 5
  %146 = load i32, ptr %145, align 4, !tbaa !39
  %147 = icmp ne i32 %146, 9
  br i1 %147, label %148, label %159

148:                                              ; preds = %143
  %149 = load ptr, ptr %7, align 8, !tbaa !3
  call void @internal_exr_unlock(ptr noundef %149)
  %150 = load ptr, ptr %7, align 8, !tbaa !3
  %151 = getelementptr inbounds nuw %struct._priv_exr_context_t, ptr %150, i32 0, i32 14
  %152 = load ptr, ptr %151, align 8, !tbaa !27
  %153 = load ptr, ptr %7, align 8, !tbaa !3
  %154 = load ptr, ptr %9, align 8, !tbaa !36
  %155 = load ptr, ptr %12, align 8, !tbaa !35
  %156 = getelementptr inbounds nuw %struct.exr_attribute_t, ptr %155, i32 0, i32 1
  %157 = load ptr, ptr %156, align 8, !tbaa !41
  %158 = call i32 (ptr, i32, ptr, ...) %152(ptr noundef %153, i32 noundef 16, ptr noundef @.str.53, ptr noundef %154, ptr noundef %157)
  store i32 %158, ptr %6, align 4
  store i32 1, ptr %16, align 4
  br label %229

159:                                              ; preds = %143
  %160 = load ptr, ptr %12, align 8, !tbaa !35
  %161 = getelementptr inbounds nuw %struct.exr_attribute_t, ptr %160, i32 0, i32 6
  %162 = load ptr, ptr %161, align 8, !tbaa !42
  %163 = getelementptr inbounds nuw %struct.exr_attr_float_vector_t, ptr %162, i32 0, i32 0
  %164 = load i32, ptr %163, align 8, !tbaa !73
  %165 = load i32, ptr %10, align 4, !tbaa !8
  %166 = icmp eq i32 %164, %165
  br i1 %166, label %167, label %184

167:                                              ; preds = %159
  %168 = load ptr, ptr %12, align 8, !tbaa !35
  %169 = getelementptr inbounds nuw %struct.exr_attribute_t, ptr %168, i32 0, i32 6
  %170 = load ptr, ptr %169, align 8, !tbaa !42
  %171 = getelementptr inbounds nuw %struct.exr_attr_float_vector_t, ptr %170, i32 0, i32 1
  %172 = load i32, ptr %171, align 4, !tbaa !122
  %173 = icmp sgt i32 %172, 0
  br i1 %173, label %174, label %184

174:                                              ; preds = %167
  %175 = load ptr, ptr %12, align 8, !tbaa !35
  %176 = getelementptr inbounds nuw %struct.exr_attribute_t, ptr %175, i32 0, i32 6
  %177 = load ptr, ptr %176, align 8, !tbaa !42
  %178 = getelementptr inbounds nuw %struct.exr_attr_float_vector_t, ptr %177, i32 0, i32 2
  %179 = load ptr, ptr %178, align 8, !tbaa !70
  %180 = ptrtoint ptr %179 to i64
  %181 = inttoptr i64 %180 to ptr
  %182 = load ptr, ptr %11, align 8, !tbaa !95
  %183 = load i64, ptr %14, align 8, !tbaa !103
  call void @llvm.memcpy.p0.p0.i64(ptr align 1 %181, ptr align 4 %182, i64 %183, i1 false)
  br label %224

184:                                              ; preds = %167, %159
  %185 = load ptr, ptr %7, align 8, !tbaa !3
  %186 = getelementptr inbounds nuw %struct._priv_exr_context_t, ptr %185, i32 0, i32 0
  %187 = load i8, ptr %186, align 8, !tbaa !12
  %188 = zext i8 %187 to i32
  %189 = icmp ne i32 %188, 1
  br i1 %189, label %190, label %210

190:                                              ; preds = %184
  %191 = load ptr, ptr %7, align 8, !tbaa !3
  %192 = getelementptr inbounds nuw %struct._priv_exr_context_t, ptr %191, i32 0, i32 0
  %193 = load i8, ptr %192, align 8, !tbaa !12
  %194 = zext i8 %193 to i32
  %195 = icmp ne i32 %194, 4
  br i1 %195, label %196, label %210

196:                                              ; preds = %190
  %197 = load ptr, ptr %7, align 8, !tbaa !3
  call void @internal_exr_unlock(ptr noundef %197)
  %198 = load ptr, ptr %7, align 8, !tbaa !3
  %199 = getelementptr inbounds nuw %struct._priv_exr_context_t, ptr %198, i32 0, i32 14
  %200 = load ptr, ptr %199, align 8, !tbaa !27
  %201 = load ptr, ptr %7, align 8, !tbaa !3
  %202 = load ptr, ptr %9, align 8, !tbaa !36
  %203 = load ptr, ptr %12, align 8, !tbaa !35
  %204 = getelementptr inbounds nuw %struct.exr_attribute_t, ptr %203, i32 0, i32 6
  %205 = load ptr, ptr %204, align 8, !tbaa !42
  %206 = getelementptr inbounds nuw %struct.exr_attr_float_vector_t, ptr %205, i32 0, i32 0
  %207 = load i32, ptr %206, align 8, !tbaa !73
  %208 = load i32, ptr %10, align 4, !tbaa !8
  %209 = call i32 (ptr, i32, ptr, ...) %200(ptr noundef %201, i32 noundef 20, ptr noundef @.str.54, ptr noundef %202, i32 noundef %207, i32 noundef %208)
  store i32 %209, ptr %6, align 4
  store i32 1, ptr %16, align 4
  br label %229

210:                                              ; preds = %190, %184
  %211 = load ptr, ptr %7, align 8, !tbaa !3
  %212 = load ptr, ptr %12, align 8, !tbaa !35
  %213 = getelementptr inbounds nuw %struct.exr_attribute_t, ptr %212, i32 0, i32 6
  %214 = load ptr, ptr %213, align 8, !tbaa !42
  %215 = call i32 @exr_attr_float_vector_destroy(ptr noundef %211, ptr noundef %214)
  %216 = load ptr, ptr %7, align 8, !tbaa !3
  %217 = load ptr, ptr %12, align 8, !tbaa !35
  %218 = getelementptr inbounds nuw %struct.exr_attribute_t, ptr %217, i32 0, i32 6
  %219 = load ptr, ptr %218, align 8, !tbaa !42
  %220 = load ptr, ptr %11, align 8, !tbaa !95
  %221 = load i32, ptr %10, align 4, !tbaa !8
  %222 = call i32 @exr_attr_float_vector_create(ptr noundef %216, ptr noundef %219, ptr noundef %220, i32 noundef %221)
  store i32 %222, ptr %13, align 4, !tbaa !8
  br label %223

223:                                              ; preds = %210
  br label %224

224:                                              ; preds = %223, %174
  br label %225

225:                                              ; preds = %224, %140
  br label %226

226:                                              ; preds = %225, %139
  %227 = load ptr, ptr %7, align 8, !tbaa !3
  call void @internal_exr_unlock(ptr noundef %227)
  %228 = load i32, ptr %13, align 4, !tbaa !8
  store i32 %228, ptr %6, align 4
  store i32 1, ptr %16, align 4
  br label %229

229:                                              ; preds = %226, %196, %148, %120, %92, %80, %67, %54, %33, %22
  call void @llvm.lifetime.end.p0(i64 8, ptr %15) #8
  call void @llvm.lifetime.end.p0(i64 8, ptr %14) #8
  call void @llvm.lifetime.end.p0(i64 4, ptr %13) #8
  call void @llvm.lifetime.end.p0(i64 8, ptr %12) #8
  %230 = load i32, ptr %6, align 4
  ret i32 %230
}