; Function Attrs: nounwind uwtable
define i32 @exr_attr_set_float_vector(ptr noundef %0, i32 noundef %1, ptr noundef %2, i32 noundef %3, ptr noundef %4) local_unnamed_addr #0 {
  %6 = alloca ptr, align 8
  call void @llvm.lifetime.start.p0(i64 8, ptr nonnull %6) #6
  store ptr null, ptr %6, align 8, !tbaa !30
  %7 = sext i32 %3 to i64
  %8 = shl nsw i64 %7, 2
  %.not = icmp eq ptr %0, null
  br i1 %.not, label %110, label %9

9:                                                ; preds = %5
  %10 = getelementptr inbounds nuw i8, ptr %0, i64 504
  %11 = tail call i32 @pthread_mutex_lock(ptr noundef nonnull %10) #6
  %12 = icmp slt i32 %1, 0
  br i1 %12, label %16, label %13

13:                                               ; preds = %9
  %14 = getelementptr inbounds nuw i8, ptr %0, i64 196
  %15 = load i32, ptr %14, align 4, !tbaa !22
  %.not80 = icmp slt i32 %1, %15
  br i1 %.not80, label %21, label %16

16:                                               ; preds = %13, %9
  %17 = tail call i32 @pthread_mutex_unlock(ptr noundef nonnull %10) #6
  %18 = getelementptr inbounds nuw i8, ptr %0, i64 72
  %19 = load ptr, ptr %18, align 8, !tbaa !23
  %20 = tail call i32 (ptr, i32, ptr, ...) %19(ptr noundef nonnull %0, i32 noundef 4, ptr noundef nonnull @.str, i32 noundef %1) #6
  br label %110

21:                                               ; preds = %13
  %22 = getelementptr inbounds nuw i8, ptr %0, i64 472
  %23 = load ptr, ptr %22, align 8, !tbaa !24
  %24 = zext nneg i32 %1 to i64
  %25 = getelementptr inbounds nuw ptr, ptr %23, i64 %24
  %26 = load ptr, ptr %25, align 8, !tbaa !25
  %27 = load i8, ptr %0, align 8, !tbaa !3
  switch i8 %27, label %38 [
    i8 0, label %28
    i8 3, label %33
  ]

28:                                               ; preds = %21
  %29 = tail call i32 @pthread_mutex_unlock(ptr noundef nonnull %10) #6
  %30 = getelementptr inbounds nuw i8, ptr %0, i64 56
  %31 = load ptr, ptr %30, align 8, !tbaa !27
  %32 = tail call i32 %31(ptr noundef nonnull %0, i32 noundef 8) #6
  br label %110

33:                                               ; preds = %21
  %34 = tail call i32 @pthread_mutex_unlock(ptr noundef nonnull %10) #6
  %35 = getelementptr inbounds nuw i8, ptr %0, i64 56
  %36 = load ptr, ptr %35, align 8, !tbaa !27
  %37 = tail call i32 %36(ptr noundef nonnull %0, i32 noundef 21) #6
  br label %110

38:                                               ; preds = %21
  %39 = icmp slt i32 %3, 0
  %40 = icmp ugt i64 %8, 2147483647
  %or.cond = select i1 %39, i1 true, i1 %40
  br i1 %or.cond, label %41, label %46

41:                                               ; preds = %38
  %42 = tail call i32 @pthread_mutex_unlock(ptr noundef nonnull %10) #6
  %43 = getelementptr inbounds nuw i8, ptr %0, i64 72
  %44 = load ptr, ptr %43, align 8, !tbaa !23
  %45 = tail call i32 (ptr, i32, ptr, ...) %44(ptr noundef nonnull %0, i32 noundef 3, ptr noundef nonnull @.str.51, i32 noundef %3, ptr noundef %2) #6
  br label %110

46:                                               ; preds = %38
  %.not81 = icmp eq ptr %4, null
  br i1 %.not81, label %47, label %52

47:                                               ; preds = %46
  %48 = tail call i32 @pthread_mutex_unlock(ptr noundef nonnull %10) #6
  %49 = getelementptr inbounds nuw i8, ptr %0, i64 72
  %50 = load ptr, ptr %49, align 8, !tbaa !23
  %51 = tail call i32 (ptr, i32, ptr, ...) %50(ptr noundef nonnull %0, i32 noundef 3, ptr noundef nonnull @.str.52, ptr noundef %2) #6
  br label %110

52:                                               ; preds = %46
  %53 = getelementptr inbounds nuw i8, ptr %26, i64 8
  %54 = call i32 @exr_attr_list_find_by_name(ptr noundef nonnull %0, ptr noundef nonnull %53, ptr noundef %2, ptr noundef nonnull %6) #6
  switch i32 %54, label %108 [
    i32 15, label %55
    i32 0, label %67
  ]

55:                                               ; preds = %52
  %56 = load i8, ptr %0, align 8, !tbaa !3
  switch i8 %56, label %57 [
    i8 1, label %59
    i8 4, label %59
  ]

57:                                               ; preds = %55
  %58 = call i32 @pthread_mutex_unlock(ptr noundef nonnull %10) #6
  br label %110

59:                                               ; preds = %55, %55
  %60 = call i32 @exr_attr_list_add(ptr noundef nonnull %0, ptr noundef nonnull %53, ptr noundef %2, i32 noundef 9, i32 noundef 0, ptr noundef null, ptr noundef nonnull %6) #6
  %61 = icmp eq i32 %60, 0
  br i1 %61, label %62, label %108

62:                                               ; preds = %59
  %63 = load ptr, ptr %6, align 8, !tbaa !30
  %64 = getelementptr inbounds nuw i8, ptr %63, i64 24
  %65 = load ptr, ptr %64, align 8, !tbaa !35
  %66 = call i32 @exr_attr_float_vector_create(ptr noundef nonnull %0, ptr noundef %65, ptr noundef nonnull %4, i32 noundef %3) #6
  br label %108

67:                                               ; preds = %52
  %68 = load ptr, ptr %6, align 8, !tbaa !30
  %69 = getelementptr inbounds nuw i8, ptr %68, i64 20
  %70 = load i32, ptr %69, align 4, !tbaa !32
  %.not82 = icmp eq i32 %70, 9
  br i1 %.not82, label %79, label %71

71:                                               ; preds = %67
  %72 = call i32 @pthread_mutex_unlock(ptr noundef nonnull %10) #6
  %73 = getelementptr inbounds nuw i8, ptr %0, i64 72
  %74 = load ptr, ptr %73, align 8, !tbaa !23
  %75 = load ptr, ptr %6, align 8, !tbaa !30
  %76 = getelementptr inbounds nuw i8, ptr %75, i64 8
  %77 = load ptr, ptr %76, align 8, !tbaa !34
  %78 = call i32 (ptr, i32, ptr, ...) %74(ptr noundef nonnull %0, i32 noundef 16, ptr noundef nonnull @.str.53, ptr noundef %2, ptr noundef %77) #6
  br label %110

79:                                               ; preds = %67
  %80 = getelementptr inbounds nuw i8, ptr %68, i64 24
  %81 = load ptr, ptr %80, align 8, !tbaa !35
  %82 = load i32, ptr %81, align 8, !tbaa !60
  %83 = icmp eq i32 %82, %3
  br i1 %83, label %84, label %91

84:                                               ; preds = %79
  %85 = getelementptr inbounds nuw i8, ptr %81, i64 4
  %86 = load i32, ptr %85, align 4, !tbaa !108
  %87 = icmp sgt i32 %86, 0
  br i1 %87, label %88, label %91

88:                                               ; preds = %84
  %89 = getelementptr inbounds nuw i8, ptr %81, i64 8
  %90 = load ptr, ptr %89, align 8, !tbaa !57
  call void @llvm.memcpy.p0.p0.i64(ptr align 1 %90, ptr nonnull align 4 %4, i64 %8, i1 false)
  br label %108

91:                                               ; preds = %84, %79
  %92 = load i8, ptr %0, align 8, !tbaa !3
  switch i8 %92, label %93 [
    i8 1, label %102
    i8 4, label %102
  ]

93:                                               ; preds = %91
  %94 = call i32 @pthread_mutex_unlock(ptr noundef nonnull %10) #6
  %95 = getelementptr inbounds nuw i8, ptr %0, i64 72
  %96 = load ptr, ptr %95, align 8, !tbaa !23
  %97 = load ptr, ptr %6, align 8, !tbaa !30
  %98 = getelementptr inbounds nuw i8, ptr %97, i64 24
  %99 = load ptr, ptr %98, align 8, !tbaa !35
  %100 = load i32, ptr %99, align 8, !tbaa !60
  %101 = call i32 (ptr, i32, ptr, ...) %96(ptr noundef nonnull %0, i32 noundef 20, ptr noundef nonnull @.str.54, ptr noundef %2, i32 noundef %100, i32 noundef %3) #6
  br label %110

102:                                              ; preds = %91, %91
  %103 = call i32 @exr_attr_float_vector_destroy(ptr noundef nonnull %0, ptr noundef nonnull %81) #6
  %104 = load ptr, ptr %6, align 8, !tbaa !30
  %105 = getelementptr inbounds nuw i8, ptr %104, i64 24
  %106 = load ptr, ptr %105, align 8, !tbaa !35
  %107 = call i32 @exr_attr_float_vector_create(ptr noundef nonnull %0, ptr noundef %106, ptr noundef nonnull %4, i32 noundef %3) #6
  br label %108

108:                                              ; preds = %52, %102, %88, %59, %62
  %.069 = phi i32 [ %66, %62 ], [ %60, %59 ], [ 0, %88 ], [ %107, %102 ], [ %54, %52 ]
  %109 = call i32 @pthread_mutex_unlock(ptr noundef nonnull %10) #6
  br label %110

110:                                              ; preds = %5, %108, %93, %71, %57, %47, %41, %33, %28, %16
  %.0 = phi i32 [ %20, %16 ], [ %32, %28 ], [ %37, %33 ], [ %45, %41 ], [ 15, %57 ], [ %.069, %108 ], [ %78, %71 ], [ %101, %93 ], [ %51, %47 ], [ 2, %5 ]
  call void @llvm.lifetime.end.p0(i64 8, ptr nonnull %6) #6
  ret i32 %.0
}